target datalayout = "e-m:e-p270:32:32-p271:32:32-p272:64:64-i64:64-i128:128-f80:128-n8:16:32:64-S128"
target triple = "x86_64-pc-linux-gnu"

%struct.pmix_pointer_array_t = type { %struct.pmix_object_t, i32, i32, i32, i32, i32, ptr, ptr }
%struct.pmix_object_t = type { %union.pthread_mutex_t, ptr, i32, %struct.pmix_tma }
%union.pthread_mutex_t = type { %struct.__pthread_mutex_s }
%struct.__pthread_mutex_s = type { i32, i32, i32, i32, i32, i16, i16, %struct.__pthread_internal_list }
%struct.__pthread_internal_list = type { ptr, ptr }
%struct.pmix_tma = type { ptr, ptr, ptr, ptr, ptr, ptr, ptr, ptr }

; Function Attrs: inlinehint nounwind uwtable
define internal void @pmix_tma_free(ptr noundef %0, ptr noundef %1) #2 {
  %3 = alloca ptr, align 8
  %4 = alloca ptr, align 8
  store ptr %0, ptr %3, align 8, !tbaa !21
  store ptr %1, ptr %4, align 8, !tbaa !30
  %5 = load ptr, ptr %3, align 8, !tbaa !21
  %6 = icmp ne ptr null, %5
  br i1 %6, label %7, label %13

7:                                                ; preds = %2
  %8 = load ptr, ptr %3, align 8, !tbaa !21
  %9 = getelementptr inbounds nuw %struct.pmix_tma, ptr %8, i32 0, i32 5
  %10 = load ptr, ptr %9, align 8, !tbaa !31
  %11 = load ptr, ptr %3, align 8, !tbaa !21
  %12 = load ptr, ptr %4, align 8, !tbaa !30
  call void %10(ptr noundef %11, ptr noundef %12)
  br label %15

13:                                               ; preds = %2
  %14 = load ptr, ptr %4, align 8, !tbaa !30
  call void @free(ptr noundef %14) #7
  br label %15

15:                                               ; preds = %13, %7
  ret void
}

; Function Attrs: inlinehint nounwind uwtable
define internal ptr @pmix_tma_calloc(ptr noundef %0, i64 noundef %1, i64 noundef %2) #2 {
  %4 = alloca ptr, align 8
  %5 = alloca ptr, align 8
  %6 = alloca i64, align 8
  %7 = alloca i64, align 8
  store ptr %0, ptr %5, align 8, !tbaa !21
  store i64 %1, ptr %6, align 8, !tbaa !24
  store i64 %2, ptr %7, align 8, !tbaa !24
  %8 = load ptr, ptr %5, align 8, !tbaa !21
  %9 = icmp ne ptr null, %8
  br i1 %9, label %10, label %18

10:                                               ; preds = %3
  %11 = load ptr, ptr %5, align 8, !tbaa !21
  %12 = getelementptr inbounds nuw %struct.pmix_tma, ptr %11, i32 0, i32 1
  %13 = load ptr, ptr %12, align 8, !tbaa !29
  %14 = load ptr, ptr %5, align 8, !tbaa !21
  %15 = load i64, ptr %6, align 8, !tbaa !24
  %16 = load i64, ptr %7, align 8, !tbaa !24
  %17 = call ptr %13(ptr noundef %14, i64 noundef %15, i64 noundef %16)
  store ptr %17, ptr %4, align 8
  br label %22

18:                                               ; preds = %3
  %19 = load i64, ptr %6, align 8, !tbaa !24
  %20 = load i64, ptr %7, align 8, !tbaa !24
  %21 = call noalias ptr @calloc(i64 noundef %19, i64 noundef %20) #8
  store ptr %21, ptr %4, align 8
  br label %22

22:                                               ; preds = %18, %10
  %23 = load ptr, ptr %4, align 8
  ret ptr %23
}

; Function Attrs: inlinehint nounwind uwtable
define internal ptr @pmix_obj_get_tma(ptr noundef %0) #2 {
  %2 = alloca ptr, align 8
  %3 = alloca ptr, align 8
  store ptr %0, ptr %3, align 8, !tbaa !26
  %4 = load ptr, ptr %3, align 8, !tbaa !26
  %5 = getelementptr inbounds nuw %struct.pmix_object_t, ptr %4, i32 0, i32 3
  %6 = getelementptr inbounds nuw %struct.pmix_tma, ptr %5, i32 0, i32 0
  %7 = load ptr, ptr %6, align 8, !tbaa !28
  %8 = icmp ne ptr %7, null
  br i1 %8, label %9, label %12

9:                                                ; preds = %1
  %10 = load ptr, ptr %3, align 8, !tbaa !26
  %11 = getelementptr inbounds nuw %struct.pmix_object_t, ptr %10, i32 0, i32 3
  store ptr %11, ptr %2, align 8
  br label %13

12:                                               ; preds = %1
  store ptr null, ptr %2, align 8
  br label %13

13:                                               ; preds = %12, %9
  %14 = load ptr, ptr %2, align 8
  ret ptr %14
}

; Function Attrs: nounwind uwtable
define i32 @pmix_pointer_array_init(ptr noundef %0, i32 noundef %1, i32 noundef %2, i32 noundef %3) #0 {
  %5 = alloca i32, align 4
  %6 = alloca ptr, align 8
  %7 = alloca i32, align 4
  %8 = alloca i32, align 4
  %9 = alloca i32, align 4
  %10 = alloca i64, align 8
  %11 = alloca i32, align 4
  %12 = alloca ptr, align 8
  store ptr %0, ptr %6, align 8, !tbaa !3
  store i32 %1, ptr %7, align 4, !tbaa !23
  store i32 %2, ptr %8, align 4, !tbaa !23
  store i32 %3, ptr %9, align 4, !tbaa !23
  call void @llvm.lifetime.start.p0(i64 8, ptr %10) #7
  %13 = load ptr, ptr %6, align 8, !tbaa !3
  %14 = icmp eq ptr null, %13
  br i1 %14, label %19, label %15

15:                                               ; preds = %4
  %16 = load i32, ptr %8, align 4, !tbaa !23
  %17 = load i32, ptr %9, align 4, !tbaa !23
  %18 = icmp slt i32 %16, %17
  br i1 %18, label %19, label %20

19:                                               ; preds = %15, %4
  store i32 -27, ptr %5, align 4
  store i32 1, ptr %11, align 4
  br label %87

20:                                               ; preds = %15
  call void @llvm.lifetime.start.p0(i64 8, ptr %12) #7
  %21 = load ptr, ptr %6, align 8, !tbaa !3
  %22 = getelementptr inbounds nuw %struct.pmix_pointer_array_t, ptr %21, i32 0, i32 0
  %23 = call ptr @pmix_obj_get_tma(ptr noundef %22)
  store ptr %23, ptr %12, align 8, !tbaa !21
  %24 = load i32, ptr %8, align 4, !tbaa !23
  %25 = load ptr, ptr %6, align 8, !tbaa !3
  %26 = getelementptr inbounds nuw %struct.pmix_pointer_array_t, ptr %25, i32 0, i32 4
  store i32 %24, ptr %26, align 4, !tbaa !17
  %27 = load i32, ptr %9, align 4, !tbaa !23
  %28 = icmp eq i32 0, %27
  br i1 %28, label %29, label %30

29:                                               ; preds = %20
  br label %32

30:                                               ; preds = %20
  %31 = load i32, ptr %9, align 4, !tbaa !23
  br label %32

32:                                               ; preds = %30, %29
  %33 = phi i32 [ 8, %29 ], [ %31, %30 ]
  %34 = load ptr, ptr %6, align 8, !tbaa !3
  %35 = getelementptr inbounds nuw %struct.pmix_pointer_array_t, ptr %34, i32 0, i32 5
  store i32 %33, ptr %35, align 8, !tbaa !18
  %36 = load ptr, ptr %6, align 8, !tbaa !3
  %37 = getelementptr inbounds nuw %struct.pmix_pointer_array_t, ptr %36, i32 0, i32 1
  store i32 0, ptr %37, align 8, !tbaa !8
  %38 = load i32, ptr %7, align 4, !tbaa !23
  %39 = icmp slt i32 0, %38
  br i1 %39, label %40, label %42

40:                                               ; preds = %32
  %41 = load i32, ptr %7, align 4, !tbaa !23
  br label %44

42:                                               ; preds = %32
  %43 = load i32, ptr %9, align 4, !tbaa !23
  br label %44

44:                                               ; preds = %42, %40
  %45 = phi i32 [ %41, %40 ], [ %43, %42 ]
  %46 = sext i32 %45 to i64
  store i64 %46, ptr %10, align 8, !tbaa !24
  %47 = load ptr, ptr %12, align 8, !tbaa !21
  %48 = load i64, ptr %10, align 8, !tbaa !24
  %49 = call ptr @pmix_tma_calloc(ptr noundef %47, i64 noundef %48, i64 noundef 8)
  %50 = load ptr, ptr %6, align 8, !tbaa !3
  %51 = getelementptr inbounds nuw %struct.pmix_pointer_array_t, ptr %50, i32 0, i32 7
  store ptr %49, ptr %51, align 8, !tbaa !20
  %52 = load ptr, ptr %6, align 8, !tbaa !3
  %53 = getelementptr inbounds nuw %struct.pmix_pointer_array_t, ptr %52, i32 0, i32 7
  %54 = load ptr, ptr %53, align 8, !tbaa !20
  %55 = icmp eq ptr null, %54
  br i1 %55, label %56, label %57

56:                                               ; preds = %44
  store i32 -29, ptr %5, align 4
  store i32 1, ptr %11, align 4
  br label %86

57:                                               ; preds = %44
  %58 = load ptr, ptr %12, align 8, !tbaa !21
  %59 = load i64, ptr %10, align 8, !tbaa !24
  %60 = add i64 %59, 64
  %61 = sub i64 %60, 1
  %62 = udiv i64 %61, 64
  %63 = call ptr @pmix_tma_calloc(ptr noundef %58, i64 noundef %62, i64 noundef 8)
  %64 = load ptr, ptr %6, align 8, !tbaa !3
  %65 = getelementptr inbounds nuw %struct.pmix_pointer_array_t, ptr %64, i32 0, i32 6
  store ptr %63, ptr %65, align 8, !tbaa !19
  %66 = load ptr, ptr %6, align 8, !tbaa !3
  %67 = getelementptr inbounds nuw %struct.pmix_pointer_array_t, ptr %66, i32 0, i32 6
  %68 = load ptr, ptr %67, align 8, !tbaa !19
  %69 = icmp eq ptr null, %68
  br i1 %69, label %70, label %77

70:                                               ; preds = %57
  %71 = load ptr, ptr %12, align 8, !tbaa !21
  %72 = load ptr, ptr %6, align 8, !tbaa !3
  %73 = getelementptr inbounds nuw %struct.pmix_pointer_array_t, ptr %72, i32 0, i32 7
  %74 = load ptr, ptr %73, align 8, !tbaa !20
  call void @pmix_tma_free(ptr noundef %71, ptr noundef %74)
  %75 = load ptr, ptr %6, align 8, !tbaa !3
  %76 = getelementptr inbounds nuw %struct.pmix_pointer_array_t, ptr %75, i32 0, i32 7
  store ptr null, ptr %76, align 8, !tbaa !20
  store i32 -29, ptr %5, align 4
  store i32 1, ptr %11, align 4
  br label %86

77:                                               ; preds = %57
  %78 = load i64, ptr %10, align 8, !tbaa !24
  %79 = trunc i64 %78 to i32
  %80 = load ptr, ptr %6, align 8, !tbaa !3
  %81 = getelementptr inbounds nuw %struct.pmix_pointer_array_t, ptr %80, i32 0, i32 2
  store i32 %79, ptr %81, align 4, !tbaa !15
  %82 = load i64, ptr %10, align 8, !tbaa !24
  %83 = trunc i64 %82 to i32
  %84 = load ptr, ptr %6, align 8, !tbaa !3
  %85 = getelementptr inbounds nuw %struct.pmix_pointer_array_t, ptr %84, i32 0, i32 3
  store i32 %83, ptr %85, align 8, !tbaa !16
  store i32 0, ptr %5, align 4
  store i32 1, ptr %11, align 4
  br label %86

86:                                               ; preds = %77, %70, %56
  call void @llvm.lifetime.end.p0(i64 8, ptr %12) #7
  br label %87

87:                                               ; preds = %86, %19
  call void @llvm.lifetime.end.p0(i64 8, ptr %10) #7
  %88 = load i32, ptr %5, align 4
  ret i32 %88
}