; Function Attrs: nounwind uwtable
define range(i32 -29, 1) i32 @pmix_pointer_array_init(ptr noundef %0, i32 noundef %1, i32 noundef %2, i32 noundef %3) local_unnamed_addr #1 {
  %5 = icmp eq ptr %0, null
  %6 = icmp slt i32 %2, %3
  %or.cond = or i1 %5, %6
  br i1 %or.cond, label %46, label %7

7:                                                ; preds = %4
  %8 = getelementptr inbounds nuw i8, ptr %0, i64 56
  %9 = load ptr, ptr %8, align 8, !tbaa !17
  %.not.i = icmp eq ptr %9, null
  %10 = getelementptr inbounds nuw i8, ptr %0, i64 132
  store i32 %2, ptr %10, align 4, !tbaa !15
  %11 = icmp eq i32 %3, 0
  %12 = select i1 %11, i32 8, i32 %3
  %13 = getelementptr inbounds nuw i8, ptr %0, i64 136
  store i32 %12, ptr %13, align 8, !tbaa !16
  %14 = getelementptr inbounds nuw i8, ptr %0, i64 120
  store i32 0, ptr %14, align 8, !tbaa !3
  %15 = icmp sgt i32 %1, 0
  %16 = select i1 %15, i32 %1, i32 %3
  %17 = sext i32 %16 to i64
  br i1 %.not.i, label %pmix_tma_calloc.exit, label %pmix_tma_calloc.exit.thread

pmix_tma_calloc.exit:                             ; preds = %7
  %18 = tail call noalias ptr @calloc(i64 noundef range(i64 -2147483648, 288230376151711744) %17, i64 noundef 8) #7
  %19 = getelementptr inbounds nuw i8, ptr %0, i64 152
  store ptr %18, ptr %19, align 8, !tbaa !20
  %20 = icmp eq ptr %18, null
  br i1 %20, label %46, label %pmix_tma_calloc.exit34

pmix_tma_calloc.exit.thread:                      ; preds = %7
  %21 = getelementptr inbounds nuw i8, ptr %0, i64 64
  %22 = load ptr, ptr %21, align 8, !tbaa !21
  %23 = tail call ptr %22(ptr noundef nonnull %8, i64 noundef range(i64 -2147483648, 288230376151711744) %17, i64 noundef 8) #6
  %24 = getelementptr inbounds nuw i8, ptr %0, i64 152
  store ptr %23, ptr %24, align 8, !tbaa !20
  %25 = icmp eq ptr %23, null
  br i1 %25, label %46, label %pmix_tma_calloc.exit34.thread

pmix_tma_calloc.exit34:                           ; preds = %pmix_tma_calloc.exit
  %26 = add nsw i64 %17, 63
  %27 = lshr i64 %26, 6
  %28 = tail call noalias ptr @calloc(i64 noundef range(i64 -2147483648, 288230376151711744) %27, i64 noundef 8) #7
  %29 = getelementptr inbounds nuw i8, ptr %0, i64 144
  store ptr %28, ptr %29, align 8, !tbaa !18
  %30 = icmp eq ptr %28, null
  br i1 %30, label %41, label %43

pmix_tma_calloc.exit34.thread:                    ; preds = %pmix_tma_calloc.exit.thread
  %31 = add nsw i64 %17, 63
  %32 = lshr i64 %31, 6
  %33 = load ptr, ptr %21, align 8, !tbaa !21
  %34 = tail call ptr %33(ptr noundef nonnull %8, i64 noundef range(i64 -2147483648, 288230376151711744) %32, i64 noundef 8) #6
  %35 = getelementptr inbounds nuw i8, ptr %0, i64 144
  store ptr %34, ptr %35, align 8, !tbaa !18
  %36 = icmp eq ptr %34, null
  br i1 %36, label %37, label %43

37:                                               ; preds = %pmix_tma_calloc.exit34.thread
  %38 = load ptr, ptr %24, align 8, !tbaa !20
  %39 = getelementptr inbounds nuw i8, ptr %0, i64 96
  %40 = load ptr, ptr %39, align 8, !tbaa !19
  tail call void %40(ptr noundef nonnull %8, ptr noundef %38) #6
  br label %pmix_tma_free.exit

41:                                               ; preds = %pmix_tma_calloc.exit34
  tail call void @free(ptr noundef nonnull %18) #6
  br label %pmix_tma_free.exit

pmix_tma_free.exit:                               ; preds = %37, %41
  %42 = phi ptr [ %24, %37 ], [ %19, %41 ]
  store ptr null, ptr %42, align 8, !tbaa !20
  br label %46

43:                                               ; preds = %pmix_tma_calloc.exit34.thread, %pmix_tma_calloc.exit34
  %44 = getelementptr inbounds nuw i8, ptr %0, i64 124
  store i32 %16, ptr %44, align 4, !tbaa !13
  %45 = getelementptr inbounds nuw i8, ptr %0, i64 128
  store i32 %16, ptr %45, align 8, !tbaa !14
  br label %46

46:                                               ; preds = %pmix_tma_calloc.exit.thread, %pmix_tma_free.exit, %43, %pmix_tma_calloc.exit, %4
  %.0 = phi i32 [ -27, %4 ], [ -29, %pmix_tma_free.exit ], [ 0, %43 ], [ -29, %pmix_tma_calloc.exit ], [ -29, %pmix_tma_calloc.exit.thread ]
  ret i32 %.0
}